Certificate:
    Data:
        Version: 3 (0x2)
        Serial Number: 4527614172070792830 (0x3ed55119e64dce7e)
    Signature Algorithm: sha256WithRSAEncryption
        Issuer: CN=SG TRUST SERVICES RACINE, OU=0002 43525289500022, O=SG TRUST SERVICES, C=FR
        Validity
            Not Before: Sep  6 12:53:42 2010 GMT
            Not After : Sep  5 12:53:42 2030 GMT
        Subject: CN=SG TRUST SERVICES RACINE, OU=0002 43525289500022, O=SG TRUST SERVICES, C=FR
        Subject Public Key Info:
            Public Key Algorithm: rsaEncryption
                Public-Key: (4096 bit)
                Modulus:
                    00:da:a8:56:02:ec:7c:95:f0:4e:e9:0a:d2:b7:07:
                    a3:22:8b:50:b3:b9:2e:19:3d:57:db:19:aa:d2:2b:
                    e4:ce:42:e2:6c:a1:e4:5d:25:1e:33:1d:b6:45:d1:
                    b4:fa:59:8a:56:70:c9:6d:08:76:69:70:9a:e6:c7:
                    9c:08:30:13:fe:e6:d1:92:68:61:3e:4c:11:f2:6e:
                    f2:b1:7b:57:56:4b:09:bd:dc:0f:d9:71:0c:e8:9a:
                    37:de:22:10:1c:99:5e:d6:b1:17:07:d3:a4:39:2d:
                    c2:1a:73:fd:ca:4b:29:07:c2:79:29:c8:c8:26:ae:
                    2c:c4:fc:23:c8:4b:e2:86:56:0f:28:fd:b6:87:1b:
                    68:5f:39:64:45:fd:68:83:6c:75:24:1e:3c:75:99:
                    61:fa:d2:14:f8:a9:4b:b1:d8:7d:a7:78:d2:13:62:
                    65:b5:d6:be:7e:6a:03:bc:b5:b2:fc:64:30:c3:d0:
                    c2:99:3d:99:a4:d3:cd:d1:b1:c4:53:87:7b:4c:13:
                    13:66:7f:bf:d5:65:53:68:f9:5c:1e:e5:b4:ff:36:
                    99:45:a3:9f:62:c0:7f:11:82:01:54:de:0f:65:a5:
                    39:ae:9d:48:4c:89:a3:10:3b:e0:e6:83:f5:b0:da:
                    2c:1e:7a:1c:5c:1f:00:ac:cc:ab:a7:60:64:b3:c6:
                    c5:7b:c7:55:46:74:3c:90:81:0e:4a:8e:59:9d:54:
                    b0:48:b1:52:4c:3b:98:ee:ab:da:34:b7:53:cd:49:
                    da:2f:eb:95:be:0c:57:11:f6:96:4c:04:79:5c:99:
                    d5:e5:e4:be:6f:ea:47:ee:51:4b:ef:22:26:ae:b5:
                    d8:11:aa:43:bb:78:bf:0b:7e:b4:dd:cf:74:1d:25:
                    a9:89:63:b1:e2:34:81:c4:88:35:38:e2:02:0d:0f:
                    13:c9:d5:2a:82:15:f0:8a:c4:43:32:56:e4:53:1d:
                    1d:ac:b6:cf:7d:9b:96:5d:1e:64:e9:74:73:c4:56:
                    e4:16:4a:52:6d:92:39:d3:e1:4d:0e:3f:62:b9:de:
                    ad:b5:1d:65:b9:5d:52:fe:5d:09:a9:9c:b4:a4:0c:
                    d9:2f:45:76:a5:cf:8e:6a:9a:9e:aa:b0:11:a1:eb:
                    61:c6:eb:3f:1e:fc:66:b4:12:9d:46:7f:32:16:89:
                    be:71:45:af:91:21:d9:fd:93:bf:b4:02:91:42:ff:
                    49:1f:ed:8b:15:68:dd:1f:8e:ac:9b:dd:82:05:9c:
                    44:69:16:64:17:56:5f:41:0f:4a:4f:04:0f:65:50:
                    86:93:97:ec:45:bf:5d:c2:1c:dc:cf:c4:d8:3a:e6:
                    78:05:d0:c5:55:55:a9:5e:fe:ab:3a:21:bb:e5:72:
                    14:f7:0b
                Exponent: 65537 (0x10001)
        X509v3 extensions:
            X509v3 Subject Key Identifier: 
                29:20:CB:F1:C3:0F:DA:06:8E:13:93:87:FE:5F:60:1A:29:BB:F3:B6
            X509v3 Basic Constraints: critical
                CA:TRUE
            X509v3 Authority Key Identifier: 
                keyid:29:20:CB:F1:C3:0F:DA:06:8E:13:93:87:FE:5F:60:1A:29:BB:F3:B6

            X509v3 Certificate Policies: 
                Policy: X509v3 Any Policy

            X509v3 CRL Distribution Points: 

                Full Name:
                  URI:http://crl.sgtrustservices.com/racine-GroupeSG/LatestCRL

            X509v3 Key Usage: critical
                Certificate Sign, CRL Sign
    Signature Algorithm: sha256WithRSAEncryption
         4c:46:67:e0:44:50:f5:c5:b6:ba:b2:51:0a:25:13:1d:b7:c7:
         88:2e:1f:b9:2b:64:a0:cb:93:88:52:59:aa:60:f5:cc:29:52:
         17:ff:04:e7:37:b4:31:11:46:7e:2b:1e:6c:a7:8b:3c:47:9a:
         5e:f4:aa:5d:90:3b:45:3d:9f:4a:c9:8a:7b:8e:c0:ee:3e:79:
         8b:92:a3:c8:94:4a:b8:28:11:6b:a6:25:5f:5d:bd:c7:c8:fb:
         83:4f:55:31:e6:5c:f0:13:7c:e3:bd:7f:2a:2c:37:37:94:49:
         af:84:1f:14:27:a2:58:10:8f:0a:39:37:1a:12:20:41:8f:19:
         f6:a9:1f:19:ed:b2:34:b2:ad:7d:33:44:8b:5f:0a:07:43:f2:
         76:45:45:2d:ad:e4:8d:0e:00:fd:04:08:aa:e7:6b:fb:17:bd:
         b0:08:56:0e:35:2a:72:f0:b3:e7:4d:3a:4f:0d:dc:f3:60:12:
         b3:38:64:8c:db:f9:e1:26:8d:2f:ef:4e:e8:24:47:3e:36:34:
         8a:69:0f:28:6b:8b:87:c6:bd:85:26:f9:d3:eb:69:21:56:60:
         91:d6:f7:e0:62:c2:a8:71:ae:2e:de:66:23:b5:52:46:a6:a4:
         48:37:2c:7f:01:16:57:11:f7:27:0d:0e:e5:0f:d6:90:45:e1:
         1e:3f:21:dc:d2:fc:16:18:13:3e:4d:6a:b2:26:6a:40:5e:25:
         78:fd:38:f4:ac:58:7a:37:1b:98:40:04:c7:8e:c9:d4:c4:67:
         61:b1:98:ae:f0:cd:0e:dc:b9:af:65:83:7b:0a:04:8a:3f:61:
         aa:f7:5d:41:86:e6:c6:4c:c2:4f:3a:5c:56:ea:28:3b:a7:44:
         cf:c8:4a:64:f5:72:60:2d:e3:43:b8:4a:e0:75:3c:32:e4:aa:
         16:d7:11:b9:c1:45:d9:9b:66:63:66:e5:22:b7:34:ee:ba:d5:
         74:2f:25:64:f3:81:54:cb:77:de:57:d4:93:e3:ac:07:31:3a:
         3e:5c:03:83:57:53:c7:f0:fe:68:d8:25:50:4d:12:c8:e6:e1:
         95:8d:67:ab:3c:93:3f:17:02:ba:38:d7:9e:f7:30:a5:3d:3d:
         44:01:33:1a:9a:9f:8e:d0:9f:f1:ee:30:88:73:ef:ae:24:19:
         ba:97:73:15:c1:ec:71:0c:84:64:b5:7b:ec:bc:69:3e:a4:6d:
         09:16:36:ca:4a:39:8a:cb:a7:7b:c6:1d:7e:e7:33:88:c9:be:
         30:6d:9c:85:95:21:e9:47:3b:06:7e:81:e2:ea:46:e6:70:58:
         80:e6:a8:f2:9d:0b:69:d1:33:89:59:30:f3:64:d3:0b:f6:ce:
         2b:09:fb:7d:10:76:2e:10
SHA1 Fingerprint=0C:62:8F:5C:55:70:B1:C9:57:FA:FD:38:3F:B0:3D:7B:7D:D7:B9:C6
-----BEGIN CERTIFICATE-----
MIIGGTCCBAGgAwIBAgIIPtVRGeZNzn4wDQYJKoZIhvcNAQELBQAwajEhMB8GA1UE
AxMYU0cgVFJVU1QgU0VSVklDRVMgUkFDSU5FMRwwGgYDVQQLExMwMDAyIDQzNTI1
Mjg5NTAwMDIyMRowGAYDVQQKExFTRyBUUlVTVCBTRVJWSUNFUzELMAkGA1UEBhMC
RlIwHhcNMTAwOTA2MTI1MzQyWhcNMzAwOTA1MTI1MzQyWjBqMSEwHwYDVQQDExhT
RyBUUlVTVCBTRVJWSUNFUyBSQUNJTkUxHDAaBgNVBAsTEzAwMDIgNDM1MjUyODk1
MDAwMjIxGjAYBgNVBAoTEVNHIFRSVVNUIFNFUlZJQ0VTMQswCQYDVQQGEwJGUjCC
AiIwDQYJKoZIhvcNAQEBBQADggIPADCCAgoCggIBANqoVgLsfJXwTukK0rcHoyKL
ULO5Lhk9V9sZqtIr5M5C4myh5F0lHjMdtkXRtPpZilZwyW0IdmlwmubHnAgwE/7m
0ZJoYT5MEfJu8rF7V1ZLCb3cD9lxDOiaN94iEByZXtaxFwfTpDktwhpz/cpLKQfC
eSnIyCauLMT8I8hL4oZWDyj9tocbaF85ZEX9aINsdSQePHWZYfrSFPipS7HYfad4
0hNiZbXWvn5qA7y1svxkMMPQwpk9maTTzdGxxFOHe0wTE2Z/v9VlU2j5XB7ltP82
mUWjn2LAfxGCAVTeD2WlOa6dSEyJoxA74OaD9bDaLB56HFwfAKzMq6dgZLPGxXvH
VUZ0PJCBDkqOWZ1UsEixUkw7mO6r2jS3U81J2i/rlb4MVxH2lkwEeVyZ1eXkvm/q
R+5RS+8iJq612BGqQ7t4vwt+tN3PdB0lqYljseI0gcSINTjiAg0PE8nVKoIV8IrE
QzJW5FMdHay2z32bll0eZOl0c8RW5BZKUm2SOdPhTQ4/YrnerbUdZbldUv5dCamc
tKQM2S9FdqXPjmqanqqwEaHrYcbrPx78ZrQSnUZ/MhaJvnFFr5Eh2f2Tv7QCkUL/
SR/tixVo3R+OrJvdggWcRGkWZBdWX0EPSk8ED2VQhpOX7EW/XcIc3M/E2DrmeAXQ
xVVVqV7+qzohu+VyFPcLAgMBAAGjgcIwgb8wHQYDVR0OBBYEFCkgy/HDD9oGjhOT
h/5fYBopu/O2MA8GA1UdEwEB/wQFMAMBAf8wHwYDVR0jBBgwFoAUKSDL8cMP2gaO
E5OH/l9gGim787YwEQYDVR0gBAowCDAGBgRVHSAAMEkGA1UdHwRCMEAwPqA8oDqG
OGh0dHA6Ly9jcmwuc2d0cnVzdHNlcnZpY2VzLmNvbS9yYWNpbmUtR3JvdXBlU0cv
TGF0ZXN0Q1JMMA4GA1UdDwEB/wQEAwIBBjANBgkqhkiG9w0BAQsFAAOCAgEATEZn
4ERQ9cW2urJRCiUTHbfHiC4fuStkoMuTiFJZqmD1zClSF/8E5ze0MRFGfisebKeL
PEeaXvSqXZA7RT2fSsmKe47A7j55i5KjyJRKuCgRa6YlX129x8j7g09VMeZc8BN8
471/Kiw3N5RJr4QfFCeiWBCPCjk3GhIgQY8Z9qkfGe2yNLKtfTNEi18KB0PydkVF
La3kjQ4A/QQIqudr+xe9sAhWDjUqcvCz5006Tw3c82ASszhkjNv54SaNL+9O6CRH
PjY0imkPKGuLh8a9hSb50+tpIVZgkdb34GLCqHGuLt5mI7VSRqakSDcsfwEWVxH3
Jw0O5Q/WkEXhHj8h3NL8FhgTPk1qsiZqQF4leP049KxYejcbmEAEx47J1MRnYbGY
rvDNDty5r2WDewoEij9hqvddQYbmxkzCTzpcVuooO6dEz8hKZPVyYC3jQ7hK4HU8
MuSqFtcRucFF2ZtmY2blIrc07rrVdC8lZPOBVMt33lfUk+OsBzE6PlwDg1dTx/D+
aNglUE0SyObhlY1nqzyTPxcCujjXnvcwpT09RAEzGpqfjtCf8e4wiHPvriQZupdz
FcHscQyEZLV77LxpPqRtCRY2yko5isune8YdfucziMm+MG2chZUh6Uc7Bn6B4upG
5nBYgOao8p0LadEziVkw82TTC/bOKwn7fRB2LhA=
-----END CERTIFICATE-----


