Certificate:
    Data:
        Version: 3 (0x2)
        Serial Number:
            37:19:18:e6:53:54:7c:1a:b5:b8:cb:59:5a:db:35:b7
    Signature Algorithm: sha1WithRSAEncryption
        Issuer: C=DE, ST=Baden-Wuerttemberg (BW), L=Stuttgart, O=Deutscher Sparkassen Verlag GmbH, CN=S-TRUST Authentication and Encryption Root CA 2005:PN
        Validity
            Not Before: Jun 22 00:00:00 2005 GMT
            Not After : Jun 21 23:59:59 2030 GMT
        Subject: C=DE, ST=Baden-Wuerttemberg (BW), L=Stuttgart, O=Deutscher Sparkassen Verlag GmbH, CN=S-TRUST Authentication and Encryption Root CA 2005:PN
        Subject Public Key Info:
            Public Key Algorithm: rsaEncryption
                Public-Key: (2048 bit)
                Modulus:
                    00:d9:b5:4a:c1:d3:33:ea:d3:46:b3:d1:e2:4c:d2:
                    f5:b6:83:d0:6f:d5:18:e9:93:af:27:8e:13:cd:b5:
                    25:36:50:34:12:64:29:a1:55:e1:3a:60:93:9e:28:
                    c9:e3:f3:9b:e1:04:b0:23:bf:95:8a:8e:5b:1b:41:
                    7f:5a:c3:e8:4d:4c:d5:24:16:3e:87:48:d4:27:ae:
                    e6:f7:53:1d:bb:0c:00:ef:3e:61:71:ad:bf:3a:7a:
                    58:1f:94:3d:5c:81:d5:d5:6f:df:b8:9b:d2:f5:e5:
                    cb:83:72:92:c2:53:b2:82:02:eb:ad:ad:5f:16:2d:
                    92:53:76:f1:89:b6:2c:f5:c1:2f:e0:a7:4a:6f:a0:
                    30:6a:32:eb:9a:74:03:68:78:13:9d:ca:2f:9b:0b:
                    1d:be:cf:75:0d:26:97:9b:c7:f5:5e:0a:9f:78:df:
                    b3:bc:ec:9a:ba:ef:55:8f:1b:9a:a6:07:63:29:17:
                    59:62:09:2a:79:07:77:a5:e0:d1:17:69:e9:5b:dd:
                    f6:90:ab:e2:98:0a:00:d1:25:6d:9e:d7:85:87:2f:
                    92:f1:d1:76:83:4f:0b:3a:59:37:28:2f:33:a7:17:
                    50:d6:20:0b:0a:f4:26:f9:9f:38:e7:2d:a4:b8:9b:
                    89:8d:ad:ad:c9:6a:7d:89:17:bb:f6:7f:80:83:7a:
                    e6:ed
                Exponent: 65537 (0x10001)
        X509v3 extensions:
            X509v3 Basic Constraints: critical
                CA:TRUE, pathlen:0
            X509v3 Key Usage: critical
                Certificate Sign, CRL Sign
            X509v3 Subject Alternative Name: 
                DirName:/CN=STRonline1-2048-5
            X509v3 Subject Key Identifier: 
                0F:CA:1E:5C:79:E0:A2:F3:29:B6:D2:85:B3:0B:4A:B5:65:EC:6B:52
            X509v3 Authority Key Identifier: 
                keyid:0F:CA:1E:5C:79:E0:A2:F3:29:B6:D2:85:B3:0B:4A:B5:65:EC:6B:52

    Signature Algorithm: sha1WithRSAEncryption
         af:01:f0:ed:19:3c:28:e8:4d:5c:bb:a5:63:1c:88:33:03:a7:
         00:87:a4:1f:20:ab:d6:1c:e3:06:1f:97:7e:54:bd:b7:d1:b2:
         c9:d5:da:80:ec:17:d7:8a:f5:7b:c2:00:f6:e9:11:6f:84:a0:
         5a:25:31:e2:89:f9:a4:00:3f:31:68:2e:d5:3d:e8:6e:e6:d5:
         1d:3c:3f:b2:bd:9f:77:eb:9d:d3:8c:ba:c0:d7:b6:4d:ec:53:
         9c:0f:04:6e:ea:35:67:57:e3:0a:65:7b:90:3a:e1:4f:3e:c3:
         00:92:7a:bb:05:89:73:8c:cb:a6:4d:c0:fb:f6:02:d6:b0:07:
         a3:03:c2:27:40:9f:0c:e4:85:82:2d:af:9a:42:1d:d0:c7:8d:
         f8:40:ee:9d:06:57:1c:d9:a2:d8:80:14:fe:e1:63:2d:32:87:
         d5:94:52:96:3a:46:c6:71:96:3d:f7:98:0e:b2:91:aa:8f:da:
         f4:4e:24:00:39:55:e8:ad:17:b9:d3:34:2b:4a:a9:40:cc:17:
         2a:55:65:41:74:42:7e:f5:c0:af:c8:93:ad:f2:18:5b:3d:89:
         0c:db:47:39:24:f8:e0:4c:f2:1f:b0:3d:0a:ca:05:4e:89:21:
         1a:e3:2a:99:ac:fc:7f:a1:f1:0f:1b:1f:3d:9e:04:83:dd:96:
         d9:1d:3a:94
SHA1 Fingerprint=BE:B5:A9:95:74:6B:9E:DF:73:8B:56:E6:DF:43:7A:77:BE:10:6B:81
-----BEGIN CERTIFICATE-----
MIIEezCCA2OgAwIBAgIQNxkY5lNUfBq1uMtZWts1tzANBgkqhkiG9w0BAQUFADCB
rjELMAkGA1UEBhMCREUxIDAeBgNVBAgTF0JhZGVuLVd1ZXJ0dGVtYmVyZyAoQlcp
MRIwEAYDVQQHEwlTdHV0dGdhcnQxKTAnBgNVBAoTIERldXRzY2hlciBTcGFya2Fz
c2VuIFZlcmxhZyBHbWJIMT4wPAYDVQQDEzVTLVRSVVNUIEF1dGhlbnRpY2F0aW9u
IGFuZCBFbmNyeXB0aW9uIFJvb3QgQ0EgMjAwNTpQTjAeFw0wNTA2MjIwMDAwMDBa
Fw0zMDA2MjEyMzU5NTlaMIGuMQswCQYDVQQGEwJERTEgMB4GA1UECBMXQmFkZW4t
V3VlcnR0ZW1iZXJnIChCVykxEjAQBgNVBAcTCVN0dXR0Z2FydDEpMCcGA1UEChMg
RGV1dHNjaGVyIFNwYXJrYXNzZW4gVmVybGFnIEdtYkgxPjA8BgNVBAMTNVMtVFJV
U1QgQXV0aGVudGljYXRpb24gYW5kIEVuY3J5cHRpb24gUm9vdCBDQSAyMDA1OlBO
MIIBIjANBgkqhkiG9w0BAQEFAAOCAQ8AMIIBCgKCAQEA2bVKwdMz6tNGs9HiTNL1
toPQb9UY6ZOvJ44TzbUlNlA0EmQpoVXhOmCTnijJ4/Ob4QSwI7+Vio5bG0F/WsPo
TUzVJBY+h0jUJ67m91MduwwA7z5hca2/OnpYH5Q9XIHV1W/fuJvS9eXLg3KSwlOy
ggLrra1fFi2SU3bxibYs9cEv4KdKb6AwajLrmnQDaHgTncovmwsdvs91DSaXm8f1
XgqfeN+zvOyauu9VjxuapgdjKRdZYgkqeQd3peDRF2npW932kKvimAoA0SVtnteF
hy+S8dF2g08LOlk3KC8zpxdQ1iALCvQm+Z845y2kuJuJja2tyWp9iRe79n+Ag3rm
7QIDAQABo4GSMIGPMBIGA1UdEwEB/wQIMAYBAf8CAQAwDgYDVR0PAQH/BAQDAgEG
MCkGA1UdEQQiMCCkHjAcMRowGAYDVQQDExFTVFJvbmxpbmUxLTIwNDgtNTAdBgNV
HQ4EFgQUD8oeXHngovMpttKFswtKtWXsa1IwHwYDVR0jBBgwFoAUD8oeXHngovMp
ttKFswtKtWXsa1IwDQYJKoZIhvcNAQEFBQADggEBAK8B8O0ZPCjoTVy7pWMciDMD
pwCHpB8gq9Yc4wYfl35UvbfRssnV2oDsF9eK9XvCAPbpEW+EoFolMeKJ+aQAPzFo
LtU96G7m1R08P7K9n3frndOMusDXtk3sU5wPBG7qNWdX4wple5A64U8+wwCSersF
iXOMy6ZNwPv2AtawB6MDwidAnwzkhYItr5pCHdDHjfhA7p0GVxzZotiAFP7hYy0y
h9WUUpY6RsZxlj33mA6ykaqP2vROJAA5VeitF7nTNCtKqUDMFypVZUF0Qn71wK/I
k63yGFs9iQzbRzkk+OBM8h+wPQrKBU6JIRrjKpms/H+h8Q8bHz2eBIPdltkdOpQ=
-----END CERTIFICATE-----


