Certificate:
    Data:
        Version: 3 (0x2)
        Serial Number:
            5d:20:61:8e:8c:0e:b9:34:40:93:b9:b1:d8:63:95:b6
    Signature Algorithm: sha1WithRSAEncryption
        Issuer: C=SE, O=AddTrust AB, OU=AddTrust External TTP Network, CN=AddTrust External CA Root
        Validity
            Not Before: Aug  5 00:00:00 2014 GMT
            Not After : Nov  1 23:59:59 2015 GMT
        Subject: C=US, ST=UT, L=Salt Lake City, O=The USERTRUST Network, CN=USERTrust Legacy Secure Server CA
        Subject Public Key Info:
            Public Key Algorithm: rsaEncryption
                Public-Key: (2048 bit)
                Modulus:
                    00:d9:4d:20:3a:e6:29:30:86:f2:e9:86:89:76:34:
                    4e:68:1f:96:44:f7:d1:f9:d6:82:4e:a6:38:9e:ee:
                    cb:5b:e1:8e:2e:bd:f2:57:80:fd:c9:3f:fc:90:73:
                    44:bc:8f:bb:57:5b:e5:2d:1f:14:30:75:36:f5:7f:
                    bc:cf:56:f4:7f:81:ff:ae:91:cd:d8:d2:6a:cb:97:
                    f9:f7:cd:90:6a:45:2d:c4:bb:a4:85:13:68:57:5f:
                    ef:29:ba:2a:ca:ea:f5:cc:a4:04:9b:63:cd:00:eb:
                    fd:ed:8d:dd:23:c6:7b:1e:57:1d:36:7f:1f:08:9a:
                    0d:61:db:5a:6c:71:02:53:28:c2:fa:8d:fd:ab:bb:
                    b3:f1:8d:74:4b:df:bd:bd:cc:06:93:63:09:95:c2:
                    10:7a:9d:25:90:32:9d:01:c2:39:53:b0:e0:15:6b:
                    c7:d7:74:e5:a4:22:9b:e4:94:ff:84:91:fb:2d:b3:
                    19:43:2d:93:0f:9c:12:09:e4:67:b9:27:7a:32:ad:
                    7a:2a:cc:41:58:c0:6e:59:5f:ee:38:2b:17:22:9c:
                    89:fa:6e:e7:e5:57:35:f4:5a:ed:92:95:93:2d:f9:
                    cc:24:3f:a5:1c:3d:27:bd:22:03:73:cc:f5:ca:f3:
                    a9:f4:dc:fe:cf:e9:d0:5c:d0:0f:ab:87:fc:83:fd:
                    c8:a9
                Exponent: 65537 (0x10001)
        X509v3 extensions:
            X509v3 Authority Key Identifier: 
                keyid:AD:BD:98:7A:34:B4:26:F7:FA:C4:26:54:EF:03:BD:E0:24:CB:54:1A

            X509v3 Subject Key Identifier: 
                AF:A4:40:AF:9F:16:FE:AB:31:FD:FB:D5:97:8B:F5:91:A3:24:86:16
            X509v3 Key Usage: critical
                Digital Signature, Certificate Sign, CRL Sign
            X509v3 Basic Constraints: critical
                CA:TRUE, pathlen:0
            X509v3 Extended Key Usage: 
                TLS Web Server Authentication, TLS Web Client Authentication
            X509v3 Certificate Policies: 
                Policy: 1.3.6.1.4.1.6449.1.2.1.3.4

            X509v3 CRL Distribution Points: 

                Full Name:
                  URI:http://crl.usertrust.com/AddTrustExternalCARoot.crl

            Authority Information Access: 
                OCSP - URI:http://ocsp.usertrust.com

    Signature Algorithm: sha1WithRSAEncryption
         84:ae:2d:68:38:11:6c:83:51:62:c0:91:c2:98:bc:c6:3b:fa:
         a5:c5:bd:3b:09:e6:6e:60:6f:30:03:86:22:1a:b2:8b:f3:c6:
         ce:1e:bb:1b:79:e0:16:14:4d:d2:9a:05:4b:ff:8f:ec:f0:28:
         29:ea:2a:04:1d:3d:af:11:12:d5:49:98:50:42:9f:61:66:3a:
         b6:40:99:04:0c:6b:10:32:e9:f7:cf:86:58:4f:2d:cd:d3:ac:
         7e:e8:5b:6a:83:7c:0d:a0:9c:5c:50:36:75:0d:6d:7e:42:b7:
         df:a6:dc:90:5c:6f:23:4e:97:1d:f3:22:75:bf:03:35:e6:5d:
         7f:c7:f9:9b:2c:87:f6:8e:d6:25:96:59:9d:cf:ea:10:1e:ef:
         6e:ea:5a:9b:77:18:34:cc:81:77:af:9a:87:c2:0a:e5:e5:9e:
         13:95:53:bd:bd:49:1a:a5:76:12:f6:dc:f2:91:b7:e9:1a:e1:
         bc:4d:3d:95:71:7d:f8:8d:7c:3e:03:4f:53:ed:fe:52:fd:ca:
         5f:93:e1:1a:01:1b:02:b7:73:4e:ba:66:e9:78:8b:50:fe:11:
         cb:d1:67:d0:22:4f:77:ea:cd:14:15:40:ae:66:5d:e8:2e:7f:
         1e:88:6f:55:79:d6:b9:7e:e3:b5:fd:91:a0:c0:f2:26:87:4b:
         2f:9d:f5:a0
SHA1 Fingerprint=7C:2F:91:E2:BB:96:68:A9:C6:F6:BD:10:19:2C:6B:52:5A:1B:BA:48
-----BEGIN CERTIFICATE-----
MIIEmTCCA4GgAwIBAgIQXSBhjowOuTRAk7mx2GOVtjANBgkqhkiG9w0BAQUFADBv
MQswCQYDVQQGEwJTRTEUMBIGA1UEChMLQWRkVHJ1c3QgQUIxJjAkBgNVBAsTHUFk
ZFRydXN0IEV4dGVybmFsIFRUUCBOZXR3b3JrMSIwIAYDVQQDExlBZGRUcnVzdCBF
eHRlcm5hbCBDQSBSb290MB4XDTE0MDgwNTAwMDAwMFoXDTE1MTEwMTIzNTk1OVow
fzELMAkGA1UEBhMCVVMxCzAJBgNVBAgTAlVUMRcwFQYDVQQHEw5TYWx0IExha2Ug
Q2l0eTEeMBwGA1UEChMVVGhlIFVTRVJUUlVTVCBOZXR3b3JrMSowKAYDVQQDEyFV
U0VSVHJ1c3QgTGVnYWN5IFNlY3VyZSBTZXJ2ZXIgQ0EwggEiMA0GCSqGSIb3DQEB
AQUAA4IBDwAwggEKAoIBAQDZTSA65ikwhvLphol2NE5oH5ZE99H51oJOpjie7stb
4Y4uvfJXgP3JP/yQc0S8j7tXW+UtHxQwdTb1f7zPVvR/gf+ukc3Y0mrLl/n3zZBq
RS3Eu6SFE2hXX+8puirK6vXMpASbY80A6/3tjd0jxnseVx02fx8Img1h21pscQJT
KML6jf2ru7PxjXRL3729zAaTYwmVwhB6nSWQMp0BwjlTsOAVa8fXdOWkIpvklP+E
kfstsxlDLZMPnBIJ5Ge5J3oyrXoqzEFYwG5ZX+44KxcinIn6buflVzX0Wu2SlZMt
+cwkP6UcPSe9IgNzzPXK86n03P7P6dBc0A+rh/yD/cipAgMBAAGjggEfMIIBGzAf
BgNVHSMEGDAWgBStvZh6NLQm9/rEJlTvA73gJMtUGjAdBgNVHQ4EFgQUr6RAr58W
/qsx/fvVl4v1kaMkhhYwDgYDVR0PAQH/BAQDAgGGMBIGA1UdEwEB/wQIMAYBAf8C
AQAwHQYDVR0lBBYwFAYIKwYBBQUHAwEGCCsGAQUFBwMCMBkGA1UdIAQSMBAwDgYM
KwYBBAGyMQECAQMEMEQGA1UdHwQ9MDswOaA3oDWGM2h0dHA6Ly9jcmwudXNlcnRy
dXN0LmNvbS9BZGRUcnVzdEV4dGVybmFsQ0FSb290LmNybDA1BggrBgEFBQcBAQQp
MCcwJQYIKwYBBQUHMAGGGWh0dHA6Ly9vY3NwLnVzZXJ0cnVzdC5jb20wDQYJKoZI
hvcNAQEFBQADggEBAISuLWg4EWyDUWLAkcKYvMY7+qXFvTsJ5m5gbzADhiIasovz
xs4euxt54BYUTdKaBUv/j+zwKCnqKgQdPa8REtVJmFBCn2FmOrZAmQQMaxAy6ffP
hlhPLc3TrH7oW2qDfA2gnFxQNnUNbX5Ct9+m3JBcbyNOlx3zInW/AzXmXX/H+Zss
h/aO1iWWWZ3P6hAe727qWpt3GDTMgXevmofCCuXlnhOVU729SRqldhL23PKRt+ka
4bxNPZVxffiNfD4DT1Pt/lL9yl+T4RoBGwK3c066Zul4i1D+EcvRZ9AiT3fqzRQV
QK5mXegufx6Ib1V51rl+47X9kaDA8iaHSy+d9aA=
-----END CERTIFICATE-----


