Certificate:
    Data:
        Version: 3 (0x2)
        Serial Number: 123 (0x7b)
    Signature Algorithm: sha1WithRSAEncryption
        Issuer: C=HU, L=Budapest, O=NetLock Halozatbiztonsagi Kft., OU=Tanusitvanykiadok, CN=NetLock Minositett Kozjegyzoi (Class QA) Tanusitvanykiado/emailAddress=info@netlock.hu
        Validity
            Not Before: Mar 30 01:47:11 2003 GMT
            Not After : Dec 15 01:47:11 2022 GMT
        Subject: C=HU, L=Budapest, O=NetLock Halozatbiztonsagi Kft., OU=Tanusitvanykiadok, CN=NetLock Minositett Kozjegyzoi (Class QA) Tanusitvanykiado/emailAddress=info@netlock.hu
        Subject Public Key Info:
            Public Key Algorithm: rsaEncryption
                Public-Key: (2048 bit)
                Modulus:
                    00:c7:52:25:b2:d8:3d:d4:84:55:09:a7:1b:bd:6c:
                    b9:14:f4:8a:02:db:76:fc:6a:2a:78:ab:e5:77:f0:
                    6e:e0:8c:23:67:db:a5:64:99:b9:dd:01:3e:6f:ef:
                    2d:9a:3c:22:f0:5d:c9:57:a0:55:41:7f:f2:43:5e:
                    58:82:53:31:65:ce:1e:f2:26:ba:00:54:1e:af:b0:
                    bc:1c:e4:52:8c:a0:32:af:b7:37:b1:53:67:68:74:
                    67:50:f6:2d:2e:64:de:ae:26:79:df:df:99:86:ab:
                    ab:7f:85:ec:a0:fb:80:cc:f4:b8:0c:1e:93:45:63:
                    b9:dc:b8:5b:9b:ed:5b:39:d4:5f:62:b0:a7:8e:7c:
                    66:38:2c:aa:b1:08:63:17:67:7d:cc:bd:b3:f1:c3:
                    3f:cf:50:39:ed:d1:19:83:15:db:87:12:27:96:b7:
                    da:ea:e5:9d:bc:ba:ea:39:4f:8b:ef:74:9a:e7:c5:
                    d0:d2:ea:86:51:1c:e4:fe:64:08:28:04:79:05:eb:
                    ca:c5:71:0e:0b:ef:ab:ea:ec:12:11:a1:18:05:32:
                    69:d1:0c:2c:1a:3d:25:99:3f:b5:7c:ca:6d:b0:ae:
                    99:99:fa:08:60:e7:19:c2:f2:bd:51:d3:cc:d3:02:
                    ac:c1:11:0c:80:ce:ab:dc:94:9d:6b:a3:39:53:3a:
                    d6:85
                Exponent: 50557 (0xc57d)
        X509v3 extensions:
            X509v3 Basic Constraints: critical
                CA:TRUE, pathlen:4
            X509v3 Key Usage: critical
                Certificate Sign, CRL Sign
            Netscape Comment: 
                FIGYELEM! Ezen tanusitvany a NetLock Kft. Minositett Szolgaltatasi Szabalyzataban leirt eljarasok alapjan keszult. A minositett elektronikus alairas joghatas ervenyesulesenek, valamint elfogadasanak feltetele a Minositett Szolgaltatasi Szabalyzatban, az Altalanos Szerzodesi Feltetelekben eloirt ellenorzesi eljaras megtetele. A dokumentumok megtalalhatok a https://www.netlock.hu/docs/ cimen vagy kerhetok az info@netlock.net e-mail cimen. WARNING! The issuance and the use of this certificate are subject to the NetLock Qualified CPS available at https://www.netlock.hu/docs/ or by e-mail at info@netlock.net
            X509v3 Subject Key Identifier: 
                09:6A:62:16:92:B0:5A:BB:55:0E:CB:75:32:3A:32:E5:B2:21:C9:28
    Signature Algorithm: sha1WithRSAEncryption
         91:6a:50:9c:db:78:81:9b:3f:8b:42:e3:3b:fc:a6:c3:ee:43:
         e0:cf:f3:e2:80:35:49:45:76:02:e2:e3:2f:05:c5:f1:2a:e7:
         c0:41:33:c6:b6:9b:d0:33:39:cd:c0:db:a1:ad:6c:37:02:4c:
         58:41:3b:f2:97:92:c6:48:a8:cd:e5:8a:39:89:61:f9:52:97:
         e9:bd:f6:f9:94:74:e8:71:0e:bc:77:86:c3:06:cc:5a:7c:4a:
         7e:34:50:30:2e:fb:7f:32:9a:8d:3d:f3:20:5b:f8:6a:ca:86:
         f3:31:4c:2c:59:80:02:7d:fe:38:c9:30:75:1c:b7:55:e3:bc:
         9f:ba:a8:6d:84:28:05:75:b3:8b:0d:c0:91:54:21:e7:a6:0b:
         b4:99:f5:51:41:dc:cd:a3:47:22:d9:c7:01:81:c4:dc:47:4f:
         26:ea:1f:ed:db:cd:0d:98:f4:a3:9c:b4:73:32:4a:96:99:fe:
         bc:7f:c8:25:58:f8:58:f3:76:66:89:54:a4:a6:3e:c4:50:5c:
         ba:89:18:82:75:48:21:d2:4f:13:e8:60:7e:07:76:db:10:b5:
         51:e6:aa:b9:68:aa:cd:f6:9d:90:75:12:ea:38:1a:ca:44:e8:
         b7:99:a7:2a:68:95:66:95:ab:ad:ef:89:cb:60:a9:06:12:c6:
         94:47:e9:28
SHA1 Fingerprint=01:68:97:E1:A0:B8:F2:C3:B1:34:66:5C:20:A7:27:B7:A1:58:E2:8F
-----BEGIN CERTIFICATE-----
MIIG0TCCBbmgAwIBAgIBezANBgkqhkiG9w0BAQUFADCByTELMAkGA1UEBhMCSFUx
ETAPBgNVBAcTCEJ1ZGFwZXN0MScwJQYDVQQKEx5OZXRMb2NrIEhhbG96YXRiaXp0
b25zYWdpIEtmdC4xGjAYBgNVBAsTEVRhbnVzaXR2YW55a2lhZG9rMUIwQAYDVQQD
EzlOZXRMb2NrIE1pbm9zaXRldHQgS296amVneXpvaSAoQ2xhc3MgUUEpIFRhbnVz
aXR2YW55a2lhZG8xHjAcBgkqhkiG9w0BCQEWD2luZm9AbmV0bG9jay5odTAeFw0w
MzAzMzAwMTQ3MTFaFw0yMjEyMTUwMTQ3MTFaMIHJMQswCQYDVQQGEwJIVTERMA8G
A1UEBxMIQnVkYXBlc3QxJzAlBgNVBAoTHk5ldExvY2sgSGFsb3phdGJpenRvbnNh
Z2kgS2Z0LjEaMBgGA1UECxMRVGFudXNpdHZhbnlraWFkb2sxQjBABgNVBAMTOU5l
dExvY2sgTWlub3NpdGV0dCBLb3pqZWd5em9pIChDbGFzcyBRQSkgVGFudXNpdHZh
bnlraWFkbzEeMBwGCSqGSIb3DQEJARYPaW5mb0BuZXRsb2NrLmh1MIIBIjANBgkq
hkiG9w0BAQEFAAOCAQ8AMIIBCgKCAQEAx1Ilstg91IRVCacbvWy5FPSKAtt2/Goq
eKvld/Bu4IwjZ9ulZJm53QE+b+8tmjwi8F3JV6BVQX/yQ15YglMxZc4e8ia6AFQe
r7C8HORSjKAyr7c3sVNnaHRnUPYtLmTeriZ539+Zhqurf4XsoPuAzPS4DB6TRWO5
3Lhbm+1bOdRfYrCnjnxmOCyqsQhjF2d9zL2z8cM/z1A57dEZgxXbhxInlrfa6uWd
vLrqOU+L73Sa58XQ0uqGURzk/mQIKAR5BevKxXEOC++r6uwSEaEYBTJp0QwsGj0l
mT+1fMptsK6ZmfoIYOcZwvK9UdPM0wKswREMgM6r3JSda6M5UzrWhQIDAMV9o4IC
wDCCArwwEgYDVR0TAQH/BAgwBgEB/wIBBDAOBgNVHQ8BAf8EBAMCAQYwggJ1Bglg
hkgBhvhCAQ0EggJmFoICYkZJR1lFTEVNISBFemVuIHRhbnVzaXR2YW55IGEgTmV0
TG9jayBLZnQuIE1pbm9zaXRldHQgU3pvbGdhbHRhdGFzaSBTemFiYWx5emF0YWJh
biBsZWlydCBlbGphcmFzb2sgYWxhcGphbiBrZXN6dWx0LiBBIG1pbm9zaXRldHQg
ZWxla3Ryb25pa3VzIGFsYWlyYXMgam9naGF0YXMgZXJ2ZW55ZXN1bGVzZW5laywg
dmFsYW1pbnQgZWxmb2dhZGFzYW5hayBmZWx0ZXRlbGUgYSBNaW5vc2l0ZXR0IFN6
b2xnYWx0YXRhc2kgU3phYmFseXphdGJhbiwgYXogQWx0YWxhbm9zIFN6ZXJ6b2Rl
c2kgRmVsdGV0ZWxla2JlbiBlbG9pcnQgZWxsZW5vcnplc2kgZWxqYXJhcyBtZWd0
ZXRlbGUuIEEgZG9rdW1lbnR1bW9rIG1lZ3RhbGFsaGF0b2sgYSBodHRwczovL3d3
dy5uZXRsb2NrLmh1L2RvY3MvIGNpbWVuIHZhZ3kga2VyaGV0b2sgYXogaW5mb0Bu
ZXRsb2NrLm5ldCBlLW1haWwgY2ltZW4uIFdBUk5JTkchIFRoZSBpc3N1YW5jZSBh
bmQgdGhlIHVzZSBvZiB0aGlzIGNlcnRpZmljYXRlIGFyZSBzdWJqZWN0IHRvIHRo
ZSBOZXRMb2NrIFF1YWxpZmllZCBDUFMgYXZhaWxhYmxlIGF0IGh0dHBzOi8vd3d3
Lm5ldGxvY2suaHUvZG9jcy8gb3IgYnkgZS1tYWlsIGF0IGluZm9AbmV0bG9jay5u
ZXQwHQYDVR0OBBYEFAlqYhaSsFq7VQ7LdTI6MuWyIckoMA0GCSqGSIb3DQEBBQUA
A4IBAQCRalCc23iBmz+LQuM7/KbD7kPgz/PigDVJRXYC4uMvBcXxKufAQTPGtpvQ
MznNwNuhrWw3AkxYQTvyl5LGSKjN5Yo5iWH5Upfpvfb5lHTocQ68d4bDBsxafEp+
NFAwLvt/MpqNPfMgW/hqyobzMUwsWYACff44yTB1HLdV47yfuqhthCgFdbOLDcCR
VCHnpgu0mfVRQdzNo0ci2ccBgcTcR08m6h/t280NmPSjnLRzMkqWmf68f8glWPhY
83ZmiVSkpj7EUFy6iRiCdUgh0k8T6GB+B3bbELVR5qq5aKrN9p2QdRLqOBrKROi3
macqaJVmlaut74nLYKkGEsaUR+ko
-----END CERTIFICATE-----


