Certificate:
    Data:
        Version: 3 (0x2)
        Serial Number:
            14:13:96:83:14:55:8c:ea:7b:63:e5:fc:34:87:77:44
    Signature Algorithm: sha1WithRSAEncryption
        Issuer: CN=ComSign CA, O=ComSign, C=IL
        Validity
            Not Before: Mar 24 11:32:18 2004 GMT
            Not After : Mar 19 15:02:18 2029 GMT
        Subject: CN=ComSign CA, O=ComSign, C=IL
        Subject Public Key Info:
            Public Key Algorithm: rsaEncryption
                Public-Key: (2048 bit)
                Modulus:
                    00:f0:e4:54:69:2b:d3:c7:8f:6a:44:e4:7e:58:27:
                    f8:0b:d0:e4:94:12:8a:f1:1b:38:38:2f:1f:31:9c:
                    06:d4:2c:a7:de:0b:2a:ae:1a:a0:e3:9e:6a:bf:9f:
                    3c:c7:6e:a2:f9:8b:64:6c:3a:ad:85:55:51:54:a5:
                    38:55:b8:ab:83:04:f2:3f:64:36:f7:c0:8d:43:43:
                    6a:66:d1:f7:17:2a:d5:ef:36:fa:30:10:42:d7:53:
                    cd:f9:fa:33:73:4c:b3:e9:84:20:8a:d6:41:27:35:
                    e4:38:fa:94:9b:b8:7a:e4:79:1f:33:fb:1b:d8:21:
                    09:28:7c:4d:18:69:5e:64:8a:7a:19:93:ca:7e:ec:
                    f3:72:e7:37:07:58:59:28:ac:42:f9:c5:ff:cd:3f:
                    e7:a5:fa:38:b1:d0:0c:c7:d9:52:1a:53:d6:81:cc:
                    42:7a:35:5b:ed:4b:3a:7a:f6:b5:8e:cc:ff:0f:7c:
                    e4:60:36:87:2f:ad:f0:a1:25:7d:ff:d2:4b:11:88:
                    70:54:a6:41:a8:67:53:52:42:5e:e4:34:9e:e4:be:
                    a3:ec:aa:62:5d:dd:c3:4c:a6:82:41:e4:33:0b:ac:
                    c9:33:0f:64:82:57:2a:fd:0c:ad:36:e1:0c:ae:4b:
                    c5:ef:3b:99:d9:23:b3:5b:5d:b4:57:ec:74:70:0c:
                    2a:4f
                Exponent: 65537 (0x10001)
        X509v3 extensions:
            X509v3 Basic Constraints: 
                CA:TRUE
            X509v3 CRL Distribution Points: 

                Full Name:
                  URI:http://fedir.comsign.co.il/crl/ComSignCA.crl

            X509v3 Key Usage: critical
                Digital Signature, Certificate Sign, CRL Sign
            X509v3 Authority Key Identifier: 
                keyid:4B:01:9B:3E:56:1A:65:36:76:CB:7B:97:AA:92:05:EE:32:E7:28:31

            X509v3 Subject Key Identifier: 
                4B:01:9B:3E:56:1A:65:36:76:CB:7B:97:AA:92:05:EE:32:E7:28:31
    Signature Algorithm: sha1WithRSAEncryption
         d0:d9:a5:7e:fe:29:60:45:9d:7e:83:cf:6e:bc:47:6e:f5:1a:
         9e:54:76:42:71:b4:3c:58:3f:2d:40:25:42:f6:81:9c:f1:89:
         10:c8:0e:aa:78:4f:38:09:57:b0:3c:c0:08:fc:35:8e:f1:48:
         51:8d:0c:71:74:ba:84:c4:d7:72:9b:84:7c:38:4e:64:06:27:
         2a:e1:a7:b5:ec:08:99:b4:0a:0d:d4:85:73:c8:12:e1:35:ed:
         f1:05:31:1d:73:99:0c:eb:96:ca:dd:d3:e6:85:aa:f0:8a:fb:
         75:c1:f2:09:3c:65:65:64:f3:4c:d8:ad:cb:88:69:f3:e4:83:
         b7:0c:bd:17:5a:96:17:ca:5b:ff:ad:bb:1c:e9:2d:84:80:d8:
         21:be:85:52:d9:d4:74:b9:69:85:ba:4d:ed:28:32:eb:f9:61:
         4a:e4:c4:36:1e:19:dc:6f:84:11:1f:95:f5:83:28:18:a8:33:
         92:43:27:dd:5d:13:04:45:4f:87:d5:46:cd:3d:a8:ba:f0:f3:
         b8:56:24:45:eb:37:c7:e1:76:4f:72:39:18:df:7e:74:72:c7:
         73:2d:39:ea:60:e6:ad:11:a2:56:87:7b:c3:68:9a:fe:f8:8c:
         70:a8:df:65:32:f4:a4:40:8c:a1:c2:44:03:0e:94:00:67:a0:
         71:00:82:48
SHA1 Fingerprint=E1:A4:5B:14:1A:21:DA:1A:79:F4:1A:42:A9:61:D6:69:CD:06:34:C1
-----BEGIN CERTIFICATE-----
MIIDkzCCAnugAwIBAgIQFBOWgxRVjOp7Y+X8NId3RDANBgkqhkiG9w0BAQUFADA0
MRMwEQYDVQQDEwpDb21TaWduIENBMRAwDgYDVQQKEwdDb21TaWduMQswCQYDVQQG
EwJJTDAeFw0wNDAzMjQxMTMyMThaFw0yOTAzMTkxNTAyMThaMDQxEzARBgNVBAMT
CkNvbVNpZ24gQ0ExEDAOBgNVBAoTB0NvbVNpZ24xCzAJBgNVBAYTAklMMIIBIjAN
BgkqhkiG9w0BAQEFAAOCAQ8AMIIBCgKCAQEA8ORUaSvTx49qROR+WCf4C9DklBKK
8Rs4OC8fMZwG1Cyn3gsqrhqg455qv588x26i+YtkbDqthVVRVKU4VbirgwTyP2Q2
98CNQ0NqZtH3FyrV7zb6MBBC11PN+fozc0yz6YQgitZBJzXkOPqUm7h65HkfM/sb
2CEJKHxNGGleZIp6GZPKfuzzcuc3B1hZKKxC+cX/zT/npfo4sdAMx9lSGlPWgcxC
ejVb7Us6eva1jsz/D3zkYDaHL63woSV9/9JLEYhwVKZBqGdTUkJe5DSe5L6j7Kpi
Xd3DTKaCQeQzC6zJMw9kglcq/QytNuEMrkvF7zuZ2SOzW120V+x0cAwqTwIDAQAB
o4GgMIGdMAwGA1UdEwQFMAMBAf8wPQYDVR0fBDYwNDAyoDCgLoYsaHR0cDovL2Zl
ZGlyLmNvbXNpZ24uY28uaWwvY3JsL0NvbVNpZ25DQS5jcmwwDgYDVR0PAQH/BAQD
AgGGMB8GA1UdIwQYMBaAFEsBmz5WGmU2dst7l6qSBe4y5ygxMB0GA1UdDgQWBBRL
AZs+VhplNnbLe5eqkgXuMucoMTANBgkqhkiG9w0BAQUFAAOCAQEA0Nmlfv4pYEWd
foPPbrxHbvUanlR2QnG0PFg/LUAlQvaBnPGJEMgOqnhPOAlXsDzACPw1jvFIUY0M
cXS6hMTXcpuEfDhOZAYnKuGntewImbQKDdSFc8gS4TXt8QUxHXOZDOuWyt3T5oWq
8Ir7dcHyCTxlZWTzTNity4hp8+SDtwy9F1qWF8pb/627HOkthIDYIb6FUtnUdLlp
hbpN7Sgy6/lhSuTENh4Z3G+EER+V9YMoGKgzkkMn3V0TBEVPh9VGzT2ouvDzuFYk
Res3x+F2T3I5GN9+dHLHcy056mDmrRGiVod7w2ia/viMcKjfZTL0pECMocJEAw6U
AGegcQCCSA==
-----END CERTIFICATE-----


