Certificate:
    Data:
        Version: 3 (0x2)
        Serial Number: 11 (0xb)
    Signature Algorithm: sha256WithRSAEncryption
        Issuer: CN=Autoridad de Certificacion Raiz del Estado Venezolano, C=VE, L=Caracas, ST=Distrito Capital, O=Sistema Nacional de Certificacion Electronica, OU=Superintendencia de Servicios de Certificacion Electronica/emailAddress=acraiz@suscerte.gob.ve
        Validity
            Not Before: Dec 28 16:51:00 2010 GMT
            Not After : Dec 25 23:59:59 2020 GMT
        Subject: emailAddress=contacto@procert.net.ve, L=Chacao, ST=Miranda, OU=Proveedor de Certificados PROCERT, O=Sistema Nacional de Certificacion Electronica, C=VE, CN=PSCProcert
        Subject Public Key Info:
            Public Key Algorithm: rsaEncryption
                Public-Key: (4096 bit)
                Modulus:
                    00:d5:b7:f4:a3:94:33:a1:46:a9:55:61:49:0d:a8:
                    87:73:5e:91:2d:70:c1:06:1a:94:da:3d:ec:15:42:
                    c1:f5:8c:ae:6a:17:f1:8a:ad:fc:80:95:ea:83:44:
                    a2:5b:7a:55:ce:4f:a7:a5:d5:ba:b8:1f:a0:27:c0:
                    50:53:3e:8d:b9:c0:0e:b8:15:dc:d6:6c:f8:9e:f8:
                    04:25:df:80:8f:10:85:dd:7d:2f:7b:80:dd:57:00:
                    64:23:f8:6e:c9:be:95:4f:e1:75:ec:e0:7e:5e:95:
                    cd:b1:ef:be:7a:42:d8:c9:2c:d3:eb:1a:1a:22:8b:
                    b7:7f:06:89:e5:3c:f5:12:c0:bb:d3:0b:99:5f:90:
                    7c:8e:2d:2f:77:33:92:4a:21:46:a8:a9:08:ac:f1:
                    f6:11:02:d9:95:16:9e:8d:2f:96:e6:02:dd:75:c2:
                    14:2a:5a:d6:c9:7d:25:c2:c1:fc:aa:67:85:e2:ec:
                    be:d1:7c:3c:fa:af:d5:6e:ff:53:41:d4:f5:32:38:
                    b1:e2:5f:c4:f9:8e:10:ef:06:a9:02:89:ff:e3:0c:
                    6e:97:e0:df:9d:db:21:d0:f4:3e:08:69:6c:d8:d4:
                    e4:36:f8:83:b6:b2:36:8f:9c:ef:3a:37:16:7d:bf:
                    a2:69:d7:3b:5b:72:d0:af:aa:3f:5c:66:93:ac:0a:
                    22:61:b6:d2:a0:99:c8:54:93:5d:a8:b6:d1:bd:5d:
                    0a:5e:77:94:a2:2d:c0:82:8e:bc:ca:03:2a:34:ae:
                    73:f1:d4:b5:0c:bd:be:67:9b:54:eb:e1:fa:a0:5a:
                    ec:38:7e:3e:c1:cc:a2:c7:44:31:75:ea:3f:e5:07:
                    d2:ab:a1:25:96:f6:e6:e4:a0:5d:37:18:39:61:00:
                    33:5d:46:d4:00:c4:b4:ca:3c:f1:a2:a3:3e:f3:3a:
                    ff:69:30:2e:40:dd:f6:9f:9c:26:c9:96:37:ad:e7:
                    39:a2:bf:ea:69:db:55:22:95:53:2a:94:b5:df:ad:
                    16:38:81:75:66:e3:c7:2c:1b:93:9c:aa:8c:a3:ca:
                    d9:6c:3c:17:6d:9c:dc:7c:53:e0:20:27:43:36:f9:
                    12:e1:3c:5c:bd:66:bf:a2:69:23:38:b8:99:60:99:
                    0e:56:53:3a:9c:7e:14:8c:b0:06:6f:f1:86:76:90:
                    af:fd:af:fe:90:c6:8f:9f:7f:8b:92:23:9c:e7:15:
                    76:8f:d5:8b:94:13:72:69:fb:2b:61:63:88:ef:e6:
                    a4:5e:e6:a3:17:6a:58:47:cb:71:4f:14:0b:5e:c8:
                    02:08:26:a2:cb:e9:af:6b:8a:19:c7:cb:14:56:f5:
                    e1:da:b5:d9:fc:bf:73:38:da:f9:e7:af:6e:a4:37:
                    e2:07:27
                Exponent: 65537 (0x10001)
        X509v3 extensions:
            X509v3 Basic Constraints: critical
                CA:TRUE, pathlen:1
            X509v3 Issuer Alternative Name: 
                DNS:suscerte.gob.ve, othername:<unsupported>
            X509v3 Subject Key Identifier: 
                41:0F:19:38:AA:99:7F:42:0B:A4:D7:27:98:54:A2:17:4C:2D:51:54
            X509v3 Authority Key Identifier: 
                keyid:AD:BB:22:1D:C6:E0:D2:01:A8:FD:76:50:52:93:ED:98:C1:4D:AE:D3
                DirName:/CN=Autoridad de Certificacion Raiz del Estado Venezolano/C=VE/L=Caracas/ST=Distrito Capital/O=Sistema Nacional de Certificacion Electronica/OU=Superintendencia de Servicios de Certificacion Electronica/emailAddress=acraiz@suscerte.gob.ve
                serial:0A

            X509v3 Key Usage: critical
                Certificate Sign, CRL Sign
            X509v3 Subject Alternative Name: 
                DNS:procert.net.ve, othername:<unsupported>, othername:<unsupported>
            X509v3 CRL Distribution Points: 

                Full Name:
                  URI:http://www.suscerte.gob.ve/lcr/CERTIFICADO-RAIZ-SHA384CRLDER.crl

                Full Name:
                  URI:ldap://acraiz.suscerte.gob.ve

            Authority Information Access: 
                OCSP - URI:http://ocsp.suscerte.gob.ve

            X509v3 Certificate Policies: 
                Policy: 2.16.862.3.1.2
                  CPS: http://www.suscerte.gob.ve/dpc

    Signature Algorithm: sha256WithRSAEncryption
         2b:59:eb:22:99:bb:84:aa:4f:de:90:c6:d1:86:71:23:9e:4b:
         03:91:47:70:bb:c0:92:60:ec:e0:d4:e7:6d:c6:d3:ed:67:83:
         77:52:d5:f2:e5:77:a7:36:b2:e3:54:be:d9:bb:0a:9b:11:ef:
         61:f4:c6:99:33:99:f5:af:00:39:8d:83:bf:a6:bd:35:7e:2c:
         5c:31:34:6f:6c:db:f3:64:01:98:aa:94:2c:41:dd:15:86:ca:
         6b:29:4e:16:c0:49:fc:d7:83:48:13:07:51:84:31:52:88:bb:
         86:17:c7:6b:2f:8a:20:ad:c5:0b:8f:70:3e:2a:bb:1b:71:8f:
         b9:a4:a0:fd:d8:95:d9:af:59:bf:25:2b:98:e9:63:93:2f:60:
         1e:c4:aa:f8:77:f5:8b:6c:2f:ed:7e:2e:b5:4f:40:0d:ee:bc:
         57:77:e7:d9:b6:d4:3f:95:27:3a:20:d5:e5:ae:ab:6c:35:9f:
         c1:a1:1d:59:dc:84:81:ee:4d:07:e2:48:b6:9e:4b:95:2d:41:
         b1:e1:e8:de:7e:2f:05:1e:68:ee:bf:bb:90:65:3a:c8:ee:ea:
         b1:18:37:1c:62:93:a4:a0:31:ec:71:6c:91:e6:a4:79:89:5a:
         14:a7:14:50:05:4c:a4:00:57:30:2c:c1:b5:61:96:dc:3e:1e:
         84:af:39:42:cf:e5:d0:2c:b1:24:bc:df:40:c3:ed:7f:63:4a:
         bd:e1:4f:12:64:86:95:f3:b0:e7:c8:b7:e1:53:bd:92:e6:f3:
         0c:96:b9:eb:e8:e6:92:ed:a7:81:09:14:0b:fc:95:7a:cf:8f:
         d6:34:4f:36:12:dc:5e:d1:34:75:c6:46:80:2f:95:04:8c:c7:
         86:c4:a8:26:89:a8:3f:19:9b:81:bb:51:a4:4a:86:ab:0b:11:
         0f:b1:ae:63:53:6d:28:ea:dd:33:56:38:1c:b2:ad:80:d3:d7:
         72:bd:9a:6c:99:63:e8:00:bb:41:76:05:b7:5b:99:18:8a:c3:
         b8:12:5c:56:cf:56:0c:7d:e8:e2:cf:ed:bc:74:47:fb:ee:d3:
         17:4e:22:4f:56:ff:50:f3:2e:e6:39:a6:82:d6:71:ca:de:b7:
         d5:ba:68:08:ed:99:cc:fd:a2:92:cb:69:b8:9d:f9:0a:a4:a6:
         3e:4f:93:28:2a:61:6c:07:26:00:ff:96:5f:68:86:b8:b8:ce:
         ca:55:e0:ab:b1:3d:7f:98:d7:33:0e:5a:3d:d8:78:c2:c4:60:
         2f:c7:62:f0:61:91:d2:38:b0:f6:9e:55:db:40:80:05:12:33:
         ce:1d:92:9b:d1:69:b3:ff:bf:f1:92:0a:61:35:3f:dd:fe:86:
         f4:bc:e0:1a:71:b3:62:a6
SHA1 Fingerprint=70:C1:8D:74:B4:28:81:0A:E4:FD:A5:75:D7:01:9F:99:B0:3D:50:74
-----BEGIN CERTIFICATE-----
MIIJhjCCB26gAwIBAgIBCzANBgkqhkiG9w0BAQsFADCCAR4xPjA8BgNVBAMTNUF1
dG9yaWRhZCBkZSBDZXJ0aWZpY2FjaW9uIFJhaXogZGVsIEVzdGFkbyBWZW5lem9s
YW5vMQswCQYDVQQGEwJWRTEQMA4GA1UEBxMHQ2FyYWNhczEZMBcGA1UECBMQRGlz
dHJpdG8gQ2FwaXRhbDE2MDQGA1UEChMtU2lzdGVtYSBOYWNpb25hbCBkZSBDZXJ0
aWZpY2FjaW9uIEVsZWN0cm9uaWNhMUMwQQYDVQQLEzpTdXBlcmludGVuZGVuY2lh
IGRlIFNlcnZpY2lvcyBkZSBDZXJ0aWZpY2FjaW9uIEVsZWN0cm9uaWNhMSUwIwYJ
KoZIhvcNAQkBFhZhY3JhaXpAc3VzY2VydGUuZ29iLnZlMB4XDTEwMTIyODE2NTEw
MFoXDTIwMTIyNTIzNTk1OVowgdExJjAkBgkqhkiG9w0BCQEWF2NvbnRhY3RvQHBy
b2NlcnQubmV0LnZlMQ8wDQYDVQQHEwZDaGFjYW8xEDAOBgNVBAgTB01pcmFuZGEx
KjAoBgNVBAsTIVByb3ZlZWRvciBkZSBDZXJ0aWZpY2Fkb3MgUFJPQ0VSVDE2MDQG
A1UEChMtU2lzdGVtYSBOYWNpb25hbCBkZSBDZXJ0aWZpY2FjaW9uIEVsZWN0cm9u
aWNhMQswCQYDVQQGEwJWRTETMBEGA1UEAxMKUFNDUHJvY2VydDCCAiIwDQYJKoZI
hvcNAQEBBQADggIPADCCAgoCggIBANW39KOUM6FGqVVhSQ2oh3NekS1wwQYalNo9
7BVCwfWMrmoX8Yqt/ICV6oNEolt6Vc5Pp6XVurgfoCfAUFM+jbnADrgV3NZs+J74
BCXfgI8Qhd19L3uA3VcAZCP4bsm+lU/hdezgfl6VzbHvvnpC2Mks0+saGiKLt38G
ieU89RLAu9MLmV+QfI4tL3czkkohRqipCKzx9hEC2ZUWno0vluYC3XXCFCpa1sl9
JcLB/KpnheLsvtF8PPqv1W7/U0HU9TI4seJfxPmOEO8GqQKJ/+MMbpfg353bIdD0
PghpbNjU5Db4g7ayNo+c7zo3Fn2/omnXO1ty0K+qP1xmk6wKImG20qCZyFSTXai2
0b1dCl53lKItwIKOvMoDKjSuc/HUtQy9vmebVOvh+qBa7Dh+PsHMosdEMXXqP+UH
0quhJZb25uSgXTcYOWEAM11G1ADEtMo88aKjPvM6/2kwLkDd9p+cJsmWN63nOaK/
6mnbVSKVUyqUtd+tFjiBdWbjxywbk5yqjKPK2Ww8F22c3HxT4CAnQzb5EuE8XL1m
v6JpIzi4mWCZDlZTOpx+FIywBm/xhnaQr/2v/pDGj59/i5IjnOcVdo/Vi5QTcmn7
K2FjiO/mpF7moxdqWEfLcU8UC17IAggmosvpr2uKGcfLFFb14dq12fy/czja+eev
bqQ34gcnAgMBAAGjggMXMIIDEzASBgNVHRMBAf8ECDAGAQH/AgEBMDcGA1UdEgQw
MC6CD3N1c2NlcnRlLmdvYi52ZaAbBgVghl4CAqASDBBSSUYtRy0yMDAwNDAzNi0w
MB0GA1UdDgQWBBRBDxk4qpl/Qguk1yeYVKIXTC1RVDCCAVAGA1UdIwSCAUcwggFD
gBStuyIdxuDSAaj9dlBSk+2YwU2u06GCASakggEiMIIBHjE+MDwGA1UEAxM1QXV0
b3JpZGFkIGRlIENlcnRpZmljYWNpb24gUmFpeiBkZWwgRXN0YWRvIFZlbmV6b2xh
bm8xCzAJBgNVBAYTAlZFMRAwDgYDVQQHEwdDYXJhY2FzMRkwFwYDVQQIExBEaXN0
cml0byBDYXBpdGFsMTYwNAYDVQQKEy1TaXN0ZW1hIE5hY2lvbmFsIGRlIENlcnRp
ZmljYWNpb24gRWxlY3Ryb25pY2ExQzBBBgNVBAsTOlN1cGVyaW50ZW5kZW5jaWEg
ZGUgU2VydmljaW9zIGRlIENlcnRpZmljYWNpb24gRWxlY3Ryb25pY2ExJTAjBgkq
hkiG9w0BCQEWFmFjcmFpekBzdXNjZXJ0ZS5nb2IudmWCAQowDgYDVR0PAQH/BAQD
AgEGME0GA1UdEQRGMESCDnByb2NlcnQubmV0LnZloBUGBWCGXgIBoAwMClBTQy0w
MDAwMDKgGwYFYIZeAgKgEgwQUklGLUotMzE2MzUzNzMtNzB2BgNVHR8EbzBtMEag
RKBChkBodHRwOi8vd3d3LnN1c2NlcnRlLmdvYi52ZS9sY3IvQ0VSVElGSUNBRE8t
UkFJWi1TSEEzODRDUkxERVIuY3JsMCOgIaAfhh1sZGFwOi8vYWNyYWl6LnN1c2Nl
cnRlLmdvYi52ZTA3BggrBgEFBQcBAQQrMCkwJwYIKwYBBQUHMAGGG2h0dHA6Ly9v
Y3NwLnN1c2NlcnRlLmdvYi52ZTBBBgNVHSAEOjA4MDYGBmCGXgMBAjAsMCoGCCsG
AQUFBwIBFh5odHRwOi8vd3d3LnN1c2NlcnRlLmdvYi52ZS9kcGMwDQYJKoZIhvcN
AQELBQADggIBACtZ6yKZu4SqT96QxtGGcSOeSwORR3C7wJJg7ODU523G0+1ng3dS
1fLld6c2suNUvtm7CpsR72H0xpkzmfWvADmNg7+mvTV+LFwxNG9s2/NkAZiqlCxB
3RWGymspThbASfzXg0gTB1GEMVKIu4YXx2sviiCtxQuPcD4quxtxj7mkoP3Yldmv
Wb8lK5jpY5MvYB7Eqvh39YtsL+1+LrVPQA3uvFd359m21D+VJzog1eWuq2w1n8Gh
HVnchIHuTQfiSLaeS5UtQbHh6N5+LwUeaO6/u5BlOsju6rEYNxxik6SgMexxbJHm
pHmJWhSnFFAFTKQAVzAswbVhltw+HoSvOULP5dAssSS830DD7X9jSr3hTxJkhpXz
sOfIt+FTvZLm8wyWuevo5pLtp4EJFAv8lXrPj9Y0TzYS3F7RNHXGRoAvlQSMx4bE
qCaJqD8Zm4G7UaRKhqsLEQ+xrmNTbSjq3TNWOByyrYDT13K9mmyZY+gAu0F2Bbdb
mRiKw7gSXFbPVgx96OLP7bx0R/vu0xdOIk9W/1DzLuY5poLWccret9W6aAjtmcz9
opLLabid+Qqkpj5PkygqYWwHJgD/ll9ohri4zspV4KuxPX+Y1zMOWj3YeMLEYC/H
YvBhkdI4sPaeVdtAgAUSM84dkpvRabP/v/GSCmE1P93+hvS84Bpxs2Km
-----END CERTIFICATE-----


