Certificate:
    Data:
        Version: 3 (0x2)
        Serial Number:
            44:be:0c:8b:50:00:24:b4:11:d3:36:25:25:67:c9:89
    Signature Algorithm: sha1WithRSAEncryption
        Issuer: C=US, ST=UT, L=Salt Lake City, O=The USERTRUST Network, OU=http://www.usertrust.com, CN=UTN-USERFirst-Client Authentication and Email
        Validity
            Not Before: Jul  9 17:28:50 1999 GMT
            Not After : Jul  9 17:36:58 2019 GMT
        Subject: C=US, ST=UT, L=Salt Lake City, O=The USERTRUST Network, OU=http://www.usertrust.com, CN=UTN-USERFirst-Client Authentication and Email
        Subject Public Key Info:
            Public Key Algorithm: rsaEncryption
                Public-Key: (2048 bit)
                Modulus:
                    00:b2:39:85:a4:f2:7d:ab:41:3b:62:46:37:ae:cd:
                    c1:60:75:bc:39:65:f9:4a:1a:47:a2:b9:cc:48:cc:
                    6a:98:d5:4d:35:19:b9:a4:42:e5:ce:49:e2:8a:2f:
                    1e:7c:d2:31:07:c7:4e:b4:83:64:9d:2e:29:d5:a2:
                    64:c4:85:bd:85:51:35:79:a4:4e:68:90:7b:1c:7a:
                    a4:92:a8:17:f2:98:15:f2:93:cc:c9:a4:32:95:bb:
                    0c:4f:30:bd:98:a0:0b:8b:e5:6e:1b:a2:46:fa:78:
                    bc:a2:6f:ab:59:5e:a5:2f:cf:ca:da:6d:aa:2f:eb:
                    ac:a1:b3:6a:aa:b7:2e:67:35:8b:79:e1:1e:69:88:
                    e2:e6:46:cd:a0:a5:ea:be:0b:ce:76:3a:7a:0e:9b:
                    ea:fc:da:27:5b:3d:73:1f:22:e6:48:61:c6:4c:f3:
                    69:b1:a8:2e:1b:b6:d4:31:20:2c:bc:82:8a:8e:a4:
                    0e:a5:d7:89:43:fc:16:5a:af:1d:71:d7:11:59:da:
                    ba:87:0d:af:fa:f3:e1:c2:f0:a4:c5:67:8c:d6:d6:
                    54:3a:de:0a:a4:ba:03:77:b3:65:c8:fd:1e:d3:74:
                    62:aa:18:ca:68:93:1e:a1:85:7e:f5:47:65:cb:f8:
                    4d:57:28:74:d2:34:ff:30:b6:ee:f6:62:30:14:8c:
                    2c:eb
                Exponent: 65537 (0x10001)
        X509v3 extensions:
            X509v3 Key Usage: 
                Digital Signature, Non Repudiation, Certificate Sign, CRL Sign
            X509v3 Basic Constraints: critical
                CA:TRUE
            X509v3 Subject Key Identifier: 
                89:82:67:7D:C4:9D:26:70:00:4B:B4:50:48:7C:DE:3D:AE:04:6E:7D
            X509v3 CRL Distribution Points: 

                Full Name:
                  URI:http://crl.usertrust.com/UTN-USERFirst-ClientAuthenticationandEmail.crl

            X509v3 Extended Key Usage: 
                TLS Web Client Authentication, E-mail Protection
    Signature Algorithm: sha1WithRSAEncryption
         b1:6d:61:5d:a6:1a:7f:7c:ab:4a:e4:30:fc:53:6f:25:24:c6:
         ca:ed:e2:31:5c:2b:0e:ee:ee:61:55:6f:04:3e:cf:39:de:c5:
         1b:49:94:e4:eb:20:4c:b4:e6:9e:50:2e:72:d9:8d:f5:aa:a3:
         b3:4a:da:56:1c:60:97:80:dc:82:a2:ad:4a:bd:8a:2b:ff:0b:
         09:b4:c6:d7:20:04:45:e4:cd:80:01:ba:ba:2b:6e:ce:aa:d7:
         92:fe:e4:af:eb:f4:26:1d:16:2a:7f:6c:30:95:37:2f:33:12:
         ac:7f:dd:c7:d1:11:8c:51:98:b2:d0:a3:91:d0:ad:f6:9f:9e:
         83:93:1e:1d:42:b8:46:af:6b:66:f0:9b:7f:ea:e3:03:02:e5:
         02:51:c1:aa:d5:35:9d:72:40:03:89:ba:31:1d:c5:10:68:52:
         9e:df:a2:85:c5:5c:08:a6:78:e6:53:4f:b1:e8:b7:d3:14:9e:
         93:a6:c3:64:e3:ac:7e:71:cd:bc:9f:e9:03:1b:cc:fb:e9:ac:
         31:c1:af:7c:15:74:02:99:c3:b2:47:a6:c2:32:61:d7:c7:6f:
         48:24:51:27:a1:d5:87:55:f2:7b:8f:98:3d:16:9e:ee:75:b6:
         f8:d0:8e:f2:f3:c6:ae:28:5b:a7:f0:f3:36:17:fc:c3:05:d3:
         ca:03:4a:54
SHA1 Fingerprint=B1:72:B1:A5:6D:95:F9:1F:E5:02:87:E1:4D:37:EA:6A:44:63:76:8A
-----BEGIN CERTIFICATE-----
MIIEojCCA4qgAwIBAgIQRL4Mi1AAJLQR0zYlJWfJiTANBgkqhkiG9w0BAQUFADCB
rjELMAkGA1UEBhMCVVMxCzAJBgNVBAgTAlVUMRcwFQYDVQQHEw5TYWx0IExha2Ug
Q2l0eTEeMBwGA1UEChMVVGhlIFVTRVJUUlVTVCBOZXR3b3JrMSEwHwYDVQQLExho
dHRwOi8vd3d3LnVzZXJ0cnVzdC5jb20xNjA0BgNVBAMTLVVUTi1VU0VSRmlyc3Qt
Q2xpZW50IEF1dGhlbnRpY2F0aW9uIGFuZCBFbWFpbDAeFw05OTA3MDkxNzI4NTBa
Fw0xOTA3MDkxNzM2NThaMIGuMQswCQYDVQQGEwJVUzELMAkGA1UECBMCVVQxFzAV
BgNVBAcTDlNhbHQgTGFrZSBDaXR5MR4wHAYDVQQKExVUaGUgVVNFUlRSVVNUIE5l
dHdvcmsxITAfBgNVBAsTGGh0dHA6Ly93d3cudXNlcnRydXN0LmNvbTE2MDQGA1UE
AxMtVVROLVVTRVJGaXJzdC1DbGllbnQgQXV0aGVudGljYXRpb24gYW5kIEVtYWls
MIIBIjANBgkqhkiG9w0BAQEFAAOCAQ8AMIIBCgKCAQEAsjmFpPJ9q0E7YkY3rs3B
YHW8OWX5ShpHornMSMxqmNVNNRm5pELlzkniii8efNIxB8dOtINknS4p1aJkxIW9
hVE1eaROaJB7HHqkkqgX8pgV8pPMyaQylbsMTzC9mKALi+VuG6JG+ni8om+rWV6l
L8/K2m2qL+usobNqqrcuZzWLeeEeaYji5kbNoKXqvgvOdjp6Dpvq/NonWz1zHyLm
SGHGTPNpsaguG7bUMSAsvIKKjqQOpdeJQ/wWWq8dcdcRWdq6hw2v+vPhwvCkxWeM
1tZUOt4KpLoDd7NlyP0e03RiqhjKaJMeoYV+9Udly/hNVyh00jT/MLbu9mIwFIws
6wIDAQABo4G5MIG2MAsGA1UdDwQEAwIBxjAPBgNVHRMBAf8EBTADAQH/MB0GA1Ud
DgQWBBSJgmd9xJ0mcABLtFBIfN49rgRufTBYBgNVHR8EUTBPME2gS6BJhkdodHRw
Oi8vY3JsLnVzZXJ0cnVzdC5jb20vVVROLVVTRVJGaXJzdC1DbGllbnRBdXRoZW50
aWNhdGlvbmFuZEVtYWlsLmNybDAdBgNVHSUEFjAUBggrBgEFBQcDAgYIKwYBBQUH
AwQwDQYJKoZIhvcNAQEFBQADggEBALFtYV2mGn98q0rkMPxTbyUkxsrt4jFcKw7u
7mFVbwQ+zznexRtJlOTrIEy05p5QLnLZjfWqo7NK2lYcYJeA3IKirUq9iiv/Cwm0
xtcgBEXkzYABurorbs6q15L+5K/r9CYdFip/bDCVNy8zEqx/3cfREYxRmLLQo5HQ
rfafnoOTHh1CuEava2bwm3/q4wMC5QJRwarVNZ1yQAOJujEdxRBoUp7fooXFXAim
eOZTT7Hot9MUnpOmw2TjrH5xzbyf6QMbzPvprDHBr3wVdAKZw7JHpsIyYdfHb0gk
USeh1YdV8nuPmD0Wnu51tvjQjvLzxq4oW6fw8zYX/MMF08oDSlQ=
-----END CERTIFICATE-----


